target datalayout = "e-m:e-p270:32:32-p271:32:32-p272:64:64-i64:64-i128:128-f80:128-n8:16:32:64-S128"
target triple = "x86_64-unknown-linux-gnu"

%struct.QEMUClock = type { %struct.anon.0, i32, i8 }
%struct.anon.0 = type { ptr }
%struct.QEMUTimerList = type { ptr, %struct.QemuMutex, ptr, %struct.anon, ptr, ptr, %struct.QemuEvent }
%struct.QemuMutex = type { %union.pthread_mutex_t, i8 }
%union.pthread_mutex_t = type { %struct.__pthread_mutex_s }
%struct.__pthread_mutex_s = type { i32, i32, i32, i32, i32, i16, i16, %struct.__pthread_internal_list }
%struct.__pthread_internal_list = type { ptr, ptr }
%struct.anon = type { ptr, ptr }
%struct.QemuEvent = type { i32, i8 }
%struct.QEMUTimer = type { i64, ptr, ptr, ptr, ptr, i32, i32 }

@.str.1 = private unnamed_addr constant [26 x i8] c"../qemu/util/qemu-timer.c\00", align 1
@use_icount = external global i32, align 4
@qemu_mutex_lock_func = external global ptr, align 8
@__func__.timer_mod_ns = private unnamed_addr constant [13 x i8] c"timer_mod_ns\00", align 1
@__func__.timer_del_locked = private unnamed_addr constant [17 x i8] c"timer_del_locked\00", align 1
@__func__.timer_mod_ns_locked = private unnamed_addr constant [20 x i8] c"timer_mod_ns_locked\00", align 1

; Function Attrs: nounwind sspstrong uwtable
define dso_local void @timerlist_notify(ptr noundef %timer_list) #0 {
entry:
  %timer_list.addr = alloca ptr, align 8
  store ptr %timer_list, ptr %timer_list.addr, align 8
  %0 = load ptr, ptr %timer_list.addr, align 8
  %notify_cb = getelementptr inbounds %struct.QEMUTimerList, ptr %0, i32 0, i32 4
  %1 = load ptr, ptr %notify_cb, align 8
  %tobool = icmp ne ptr %1, null
  br i1 %tobool, label %if.then, label %if.else

if.then:                                          ; preds = %entry
  %2 = load ptr, ptr %timer_list.addr, align 8
  %notify_cb1 = getelementptr inbounds %struct.QEMUTimerList, ptr %2, i32 0, i32 4
  %3 = load ptr, ptr %notify_cb1, align 8
  %4 = load ptr, ptr %timer_list.addr, align 8
  %notify_opaque = getelementptr inbounds %struct.QEMUTimerList, ptr %4, i32 0, i32 5
  %5 = load ptr, ptr %notify_opaque, align 8
  %6 = load ptr, ptr %timer_list.addr, align 8
  %clock = getelementptr inbounds %struct.QEMUTimerList, ptr %6, i32 0, i32 0
  %7 = load ptr, ptr %clock, align 8
  %type = getelementptr inbounds %struct.QEMUClock, ptr %7, i32 0, i32 1
  %8 = load i32, ptr %type, align 8
  call void %3(ptr noundef %5, i32 noundef %8)
  br label %if.end

if.else:                                          ; preds = %entry
  call void @qemu_notify_event()
  br label %if.end

if.end:                                           ; preds = %if.else, %if.then
  ret void
}

; Function Attrs: nounwind sspstrong uwtable
define internal zeroext i1 @timer_expired_ns(ptr noundef %timer_head, i64 noundef %current_time) #0 {
entry:
  %timer_head.addr = alloca ptr, align 8
  %current_time.addr = alloca i64, align 8
  store ptr %timer_head, ptr %timer_head.addr, align 8
  store i64 %current_time, ptr %current_time.addr, align 8
  %0 = load ptr, ptr %timer_head.addr, align 8
  %tobool = icmp ne ptr %0, null
  br i1 %tobool, label %land.rhs, label %land.end

land.rhs:                                         ; preds = %entry
  %1 = load ptr, ptr %timer_head.addr, align 8
  %expire_time = getelementptr inbounds %struct.QEMUTimer, ptr %1, i32 0, i32 0
  %2 = load i64, ptr %expire_time, align 8
  %3 = load i64, ptr %current_time.addr, align 8
  %cmp = icmp sle i64 %2, %3
  br label %land.end

land.end:                                         ; preds = %land.rhs, %entry
  %4 = phi i1 [ false, %entry ], [ %cmp, %land.rhs ]
  ret i1 %4
}

; Function Attrs: nounwind sspstrong uwtable
define internal void @timerlist_rearm(ptr noundef %timer_list) #0 {
entry:
  %timer_list.addr = alloca ptr, align 8
  store ptr %timer_list, ptr %timer_list.addr, align 8
  %0 = load i32, ptr @use_icount, align 4
  %tobool = icmp ne i32 %0, 0
  br i1 %tobool, label %land.lhs.true, label %if.end

land.lhs.true:                                    ; preds = %entry
  %1 = load ptr, ptr %timer_list.addr, align 8
  %clock = getelementptr inbounds %struct.QEMUTimerList, ptr %1, i32 0, i32 0
  %2 = load ptr, ptr %clock, align 8
  %type = getelementptr inbounds %struct.QEMUClock, ptr %2, i32 0, i32 1
  %3 = load i32, ptr %type, align 8
  %cmp = icmp eq i32 %3, 1
  br i1 %cmp, label %if.then, label %if.end

if.then:                                          ; preds = %land.lhs.true
  call void @icount_start_warp_timer()
  br label %if.end

if.end:                                           ; preds = %if.then, %land.lhs.true, %entry
  %4 = load ptr, ptr %timer_list.addr, align 8
  call void @timerlist_notify(ptr noundef %4)
  ret void
}

; Function Attrs: nounwind sspstrong uwtable
define internal zeroext i1 @timer_mod_ns_locked(ptr noundef %timer_list, ptr noundef %ts, i64 noundef %expire_time) #0 {
entry:
  %timer_list.addr = alloca ptr, align 8
  %ts.addr = alloca ptr, align 8
  %expire_time.addr = alloca i64, align 8
  %pt = alloca ptr, align 8
  %t = alloca ptr, align 8
  %_a4 = alloca i64, align 8
  %_b5 = alloca i64, align 8
  %tmp = alloca i64, align 8
  %.atomictmp = alloca ptr, align 8
  store ptr %timer_list, ptr %timer_list.addr, align 8
  store ptr %ts, ptr %ts.addr, align 8
  store i64 %expire_time, ptr %expire_time.addr, align 8
  %0 = load ptr, ptr %timer_list.addr, align 8
  %active_timers = getelementptr inbounds %struct.QEMUTimerList, ptr %0, i32 0, i32 2
  store ptr %active_timers, ptr %pt, align 8
  br label %for.cond

for.cond:                                         ; preds = %if.end, %entry
  %1 = load ptr, ptr %pt, align 8
  %2 = load ptr, ptr %1, align 8
  store ptr %2, ptr %t, align 8
  %3 = load ptr, ptr %t, align 8
  %4 = load i64, ptr %expire_time.addr, align 8
  %call = call zeroext i1 @timer_expired_ns(ptr noundef %3, i64 noundef %4)
  br i1 %call, label %if.end, label %if.then

if.then:                                          ; preds = %for.cond
  br label %for.end

if.end:                                           ; preds = %for.cond
  %5 = load ptr, ptr %t, align 8
  %next = getelementptr inbounds %struct.QEMUTimer, ptr %5, i32 0, i32 4
  store ptr %next, ptr %pt, align 8
  br label %for.cond

for.end:                                          ; preds = %if.then
  %6 = load i64, ptr %expire_time.addr, align 8
  store i64 %6, ptr %_a4, align 8
  store i64 0, ptr %_b5, align 8
  %7 = load i64, ptr %_a4, align 8
  %8 = load i64, ptr %_b5, align 8
  %cmp = icmp sgt i64 %7, %8
  br i1 %cmp, label %cond.true, label %cond.false

cond.true:                                        ; preds = %for.end
  %9 = load i64, ptr %_a4, align 8
  br label %cond.end

cond.false:                                       ; preds = %for.end
  %10 = load i64, ptr %_b5, align 8
  br label %cond.end

cond.end:                                         ; preds = %cond.false, %cond.true
  %cond = phi i64 [ %9, %cond.true ], [ %10, %cond.false ]
  store i64 %cond, ptr %tmp, align 8
  %11 = load i64, ptr %tmp, align 8
  %12 = load ptr, ptr %ts.addr, align 8
  %expire_time1 = getelementptr inbounds %struct.QEMUTimer, ptr %12, i32 0, i32 0
  store i64 %11, ptr %expire_time1, align 8
  %13 = load ptr, ptr %pt, align 8
  %14 = load ptr, ptr %13, align 8
  %15 = load ptr, ptr %ts.addr, align 8
  %next2 = getelementptr inbounds %struct.QEMUTimer, ptr %15, i32 0, i32 4
  store ptr %14, ptr %next2, align 8
  br label %do.body

do.body:                                          ; preds = %cond.end
  br label %while.cond

while.cond:                                       ; preds = %do.end, %do.body
  br i1 false, label %while.body, label %while.end

while.body:                                       ; preds = %while.cond
  br label %do.body3

do.body3:                                         ; preds = %while.body
  call void @g_assertion_message_expr(ptr noundef null, ptr noundef @.str.1, i32 noundef 415, ptr noundef @__func__.timer_mod_ns_locked, ptr noundef null) #8
  unreachable

do.end:                                           ; No predecessors!
  br label %while.cond

while.end:                                        ; preds = %while.cond
  %16 = load ptr, ptr %pt, align 8
  %17 = load ptr, ptr %ts.addr, align 8
  store ptr %17, ptr %.atomictmp, align 8
  %18 = load i64, ptr %.atomictmp, align 8
  store atomic i64 %18, ptr %16 monotonic, align 8
  br label %do.end4

do.end4:                                          ; preds = %while.end
  %19 = load ptr, ptr %pt, align 8
  %20 = load ptr, ptr %timer_list.addr, align 8
  %active_timers5 = getelementptr inbounds %struct.QEMUTimerList, ptr %20, i32 0, i32 2
  %cmp6 = icmp eq ptr %19, %active_timers5
  ret i1 %cmp6
}

; Function Attrs: nounwind sspstrong uwtable
define internal void @timer_del_locked(ptr noundef %timer_list, ptr noundef %ts) #0 {
entry:
  %timer_list.addr = alloca ptr, align 8
  %ts.addr = alloca ptr, align 8
  %pt = alloca ptr, align 8
  %t = alloca ptr, align 8
  %.atomictmp = alloca ptr, align 8
  store ptr %timer_list, ptr %timer_list.addr, align 8
  store ptr %ts, ptr %ts.addr, align 8
  %0 = load ptr, ptr %ts.addr, align 8
  %expire_time = getelementptr inbounds %struct.QEMUTimer, ptr %0, i32 0, i32 0
  store i64 -1, ptr %expire_time, align 8
  %1 = load ptr, ptr %timer_list.addr, align 8
  %active_timers = getelementptr inbounds %struct.QEMUTimerList, ptr %1, i32 0, i32 2
  store ptr %active_timers, ptr %pt, align 8
  br label %for.cond

for.cond:                                         ; preds = %if.end4, %entry
  %2 = load ptr, ptr %pt, align 8
  %3 = load ptr, ptr %2, align 8
  store ptr %3, ptr %t, align 8
  %4 = load ptr, ptr %t, align 8
  %tobool = icmp ne ptr %4, null
  br i1 %tobool, label %if.end, label %if.then

if.then:                                          ; preds = %for.cond
  br label %for.end

if.end:                                           ; preds = %for.cond
  %5 = load ptr, ptr %t, align 8
  %6 = load ptr, ptr %ts.addr, align 8
  %cmp = icmp eq ptr %5, %6
  br i1 %cmp, label %if.then1, label %if.end4

if.then1:                                         ; preds = %if.end
  br label %do.body

do.body:                                          ; preds = %if.then1
  br label %while.cond

while.cond:                                       ; preds = %do.end, %do.body
  br i1 false, label %while.body, label %while.end

while.body:                                       ; preds = %while.cond
  br label %do.body2

do.body2:                                         ; preds = %while.body
  call void @g_assertion_message_expr(ptr noundef null, ptr noundef @.str.1, i32 noundef 392, ptr noundef @__func__.timer_del_locked, ptr noundef null) #8
  unreachable

do.end:                                           ; No predecessors!
  br label %while.cond

while.end:                                        ; preds = %while.cond
  %7 = load ptr, ptr %pt, align 8
  %8 = load ptr, ptr %t, align 8
  %next = getelementptr inbounds %struct.QEMUTimer, ptr %8, i32 0, i32 4
  %9 = load ptr, ptr %next, align 8
  store ptr %9, ptr %.atomictmp, align 8
  %10 = load i64, ptr %.atomictmp, align 8
  store atomic i64 %10, ptr %7 monotonic, align 8
  br label %do.end3

do.end3:                                          ; preds = %while.end
  br label %for.end

if.end4:                                          ; preds = %if.end
  %11 = load ptr, ptr %t, align 8
  %next5 = getelementptr inbounds %struct.QEMUTimer, ptr %11, i32 0, i32 4
  store ptr %next5, ptr %pt, align 8
  br label %for.cond

for.end:                                          ; preds = %do.end3, %if.then
  ret void
}

; Function Attrs: nounwind sspstrong uwtable
define dso_local void @timer_mod_ns(ptr noundef %ts, i64 noundef %expire_time) #0 {
entry:
  %ts.addr = alloca ptr, align 8
  %expire_time.addr = alloca i64, align 8
  %timer_list = alloca ptr, align 8
  %rearm = alloca i8, align 1
  %_f = alloca ptr, align 8
  %tmp = alloca ptr, align 8
  %atomic-temp = alloca ptr, align 8
  store ptr %ts, ptr %ts.addr, align 8
  store i64 %expire_time, ptr %expire_time.addr, align 8
  %0 = load ptr, ptr %ts.addr, align 8
  %timer_list1 = getelementptr inbounds %struct.QEMUTimer, ptr %0, i32 0, i32 1
  %1 = load ptr, ptr %timer_list1, align 8
  store ptr %1, ptr %timer_list, align 8
  br label %while.cond

while.cond:                                       ; preds = %do.end, %entry
  br i1 false, label %while.body, label %while.end

while.body:                                       ; preds = %while.cond
  br label %do.body

do.body:                                          ; preds = %while.body
  call void @g_assertion_message_expr(ptr noundef null, ptr noundef @.str.1, i32 noundef 448, ptr noundef @__func__.timer_mod_ns, ptr noundef null) #8
  unreachable

do.end:                                           ; No predecessors!
  br label %while.cond

while.end:                                        ; preds = %while.cond
  %2 = load atomic i64, ptr @qemu_mutex_lock_func monotonic, align 8
  store i64 %2, ptr %atomic-temp, align 8
  %3 = load ptr, ptr %atomic-temp, align 8
  store ptr %3, ptr %tmp, align 8
  %4 = load ptr, ptr %tmp, align 8
  store ptr %4, ptr %_f, align 8
  %5 = load ptr, ptr %_f, align 8
  %6 = load ptr, ptr %timer_list, align 8
  %active_timers_lock = getelementptr inbounds %struct.QEMUTimerList, ptr %6, i32 0, i32 1
  call void %5(ptr noundef %active_timers_lock, ptr noundef @.str.1, i32 noundef 448)
  %7 = load ptr, ptr %timer_list, align 8
  %8 = load ptr, ptr %ts.addr, align 8
  call void @timer_del_locked(ptr noundef %7, ptr noundef %8)
  %9 = load ptr, ptr %timer_list, align 8
  %10 = load ptr, ptr %ts.addr, align 8
  %11 = load i64, ptr %expire_time.addr, align 8
  %call = call zeroext i1 @timer_mod_ns_locked(ptr noundef %9, ptr noundef %10, i64 noundef %11)
  %frombool = zext i1 %call to i8
  store i8 %frombool, ptr %rearm, align 1
  %12 = load ptr, ptr %timer_list, align 8
  %active_timers_lock2 = getelementptr inbounds %struct.QEMUTimerList, ptr %12, i32 0, i32 1
  call void @qemu_mutex_unlock_impl(ptr noundef %active_timers_lock2, ptr noundef @.str.1, i32 noundef 451)
  %13 = load i8, ptr %rearm, align 1
  %tobool = trunc i8 %13 to i1
  br i1 %tobool, label %if.then, label %if.end

if.then:                                          ; preds = %while.end
  %14 = load ptr, ptr %timer_list, align 8
  call void @timerlist_rearm(ptr noundef %14)
  br label %if.end

if.end:                                           ; preds = %if.then, %while.end
  ret void
}