; Function Attrs: nounwind sspstrong uwtable
define dso_local void @timer_mod_ns(ptr noundef initializes((0, 8)) %ts, i64 noundef %expire_time) local_unnamed_addr #0 {
entry:
  %timer_list1 = getelementptr inbounds nuw i8, ptr %ts, i64 8
  %0 = load ptr, ptr %timer_list1, align 8
  %1 = load atomic i64, ptr @qemu_mutex_lock_func monotonic, align 8
  %2 = inttoptr i64 %1 to ptr
  %active_timers_lock = getelementptr inbounds nuw i8, ptr %0, i64 8
  tail call void %2(ptr noundef nonnull %active_timers_lock, ptr noundef nonnull @.str.1, i32 noundef 448) #17
  store i64 -1, ptr %ts, align 8
  %active_timers.i = getelementptr inbounds nuw i8, ptr %0, i64 56
  %3 = load ptr, ptr %active_timers.i, align 8
  %tobool.not8.i = icmp eq ptr %3, null
  br i1 %tobool.not8.i, label %timer_mod_ns_locked.exit, label %if.end.i.preheader

if.end.i.preheader:                               ; preds = %entry
  %cmp.i16 = icmp eq ptr %3, %ts
  br i1 %cmp.i16, label %while.end.i, label %if.end4.i

if.end.i:                                         ; preds = %if.end4.i
  %cmp.i = icmp eq ptr %7, %ts
  br i1 %cmp.i, label %while.end.i.loopexit, label %if.end4.i

while.end.i.loopexit:                             ; preds = %if.end.i
  %next5.i.le = getelementptr inbounds nuw i8, ptr %6, i64 32
  br label %while.end.i

while.end.i:                                      ; preds = %while.end.i.loopexit, %if.end.i.preheader
  %.lcssa = phi ptr [ %3, %if.end.i.preheader ], [ %7, %while.end.i.loopexit ]
  %pt.09.i.lcssa = phi ptr [ %active_timers.i, %if.end.i.preheader ], [ %next5.i.le, %while.end.i.loopexit ]
  %next.i = getelementptr inbounds nuw i8, ptr %.lcssa, i64 32
  %4 = load ptr, ptr %next.i, align 8
  %5 = ptrtoint ptr %4 to i64
  store atomic i64 %5, ptr %pt.09.i.lcssa monotonic, align 8
  %.pr.pre = load ptr, ptr %active_timers.i, align 8
  br label %timer_del_locked.exit

if.end4.i:                                        ; preds = %if.end.i.preheader, %if.end.i
  %6 = phi ptr [ %7, %if.end.i ], [ %3, %if.end.i.preheader ]
  %next5.i = getelementptr inbounds nuw i8, ptr %6, i64 32
  %7 = load ptr, ptr %next5.i, align 8
  %tobool.not.i = icmp eq ptr %7, null
  br i1 %tobool.not.i, label %timer_del_locked.exit, label %if.end.i

timer_del_locked.exit:                            ; preds = %if.end4.i, %while.end.i
  %.pr = phi ptr [ %.pr.pre, %while.end.i ], [ %3, %if.end4.i ]
  %tobool.not.i11.i = icmp eq ptr %.pr, null
  br i1 %tobool.not.i11.i, label %timer_mod_ns_locked.exit, label %timer_expired_ns.exit.i.preheader

timer_expired_ns.exit.i.preheader:                ; preds = %timer_del_locked.exit
  %8 = load i64, ptr %.pr, align 8
  %cmp.i.not.i18 = icmp sgt i64 %8, %expire_time
  br i1 %cmp.i.not.i18, label %timer_mod_ns_locked.exit, label %for.cond.i

for.cond.i:                                       ; preds = %timer_expired_ns.exit.i.preheader, %timer_expired_ns.exit.i
  %9 = phi ptr [ %10, %timer_expired_ns.exit.i ], [ %.pr, %timer_expired_ns.exit.i.preheader ]
  %next.i8 = getelementptr inbounds nuw i8, ptr %9, i64 32
  %10 = load ptr, ptr %next.i8, align 8
  %tobool.not.i.i = icmp eq ptr %10, null
  br i1 %tobool.not.i.i, label %timer_mod_ns_locked.exit.loopexit, label %timer_expired_ns.exit.i

timer_expired_ns.exit.i:                          ; preds = %for.cond.i
  %11 = load i64, ptr %10, align 8
  %cmp.i.not.i = icmp sgt i64 %11, %expire_time
  br i1 %cmp.i.not.i, label %timer_mod_ns_locked.exit.loopexit, label %for.cond.i

timer_mod_ns_locked.exit.loopexit:                ; preds = %for.cond.i, %timer_expired_ns.exit.i
  %next.i8.le = getelementptr inbounds nuw i8, ptr %9, i64 32
  br label %timer_mod_ns_locked.exit

timer_mod_ns_locked.exit:                         ; preds = %timer_mod_ns_locked.exit.loopexit, %timer_expired_ns.exit.i.preheader, %entry, %timer_del_locked.exit
  %pt.0.lcssa.i = phi ptr [ %active_timers.i, %timer_del_locked.exit ], [ %active_timers.i, %entry ], [ %active_timers.i, %timer_expired_ns.exit.i.preheader ], [ %next.i8.le, %timer_mod_ns_locked.exit.loopexit ]
  %cond.i = tail call i64 @llvm.smax.i64(i64 %expire_time, i64 0)
  store i64 %cond.i, ptr %ts, align 8
  %12 = load ptr, ptr %pt.0.lcssa.i, align 8
  %next2.i = getelementptr inbounds nuw i8, ptr %ts, i64 32
  store ptr %12, ptr %next2.i, align 8
  %13 = ptrtoint ptr %ts to i64
  store atomic i64 %13, ptr %pt.0.lcssa.i monotonic, align 8
  %cmp6.i = icmp eq ptr %pt.0.lcssa.i, %active_timers.i
  tail call void @qemu_mutex_unlock_impl(ptr noundef nonnull %active_timers_lock, ptr noundef nonnull @.str.1, i32 noundef 451) #17
  br i1 %cmp6.i, label %if.then, label %if.end

if.then:                                          ; preds = %timer_mod_ns_locked.exit
  %14 = load i32, ptr @use_icount, align 4
  %tobool.not.i9 = icmp eq i32 %14, 0
  br i1 %tobool.not.i9, label %if.end.i11, label %land.lhs.true.i

land.lhs.true.i:                                  ; preds = %if.then
  %15 = load ptr, ptr %0, align 8
  %type.i = getelementptr inbounds nuw i8, ptr %15, i64 8
  %16 = load i32, ptr %type.i, align 8
  %cmp.i10 = icmp eq i32 %16, 1
  br i1 %cmp.i10, label %if.then.i, label %if.end.i11

if.then.i:                                        ; preds = %land.lhs.true.i
  tail call void @icount_start_warp_timer() #17
  br label %if.end.i11

if.end.i11:                                       ; preds = %if.then.i, %land.lhs.true.i, %if.then
  %notify_cb.i.i = getelementptr inbounds nuw i8, ptr %0, i64 80
  %17 = load ptr, ptr %notify_cb.i.i, align 8
  %tobool.not.i.i12 = icmp eq ptr %17, null
  br i1 %tobool.not.i.i12, label %if.else.i.i, label %if.then.i.i

if.then.i.i:                                      ; preds = %if.end.i11
  %notify_opaque.i.i = getelementptr inbounds nuw i8, ptr %0, i64 88
  %18 = load ptr, ptr %notify_opaque.i.i, align 8
  %19 = load ptr, ptr %0, align 8
  %type.i.i = getelementptr inbounds nuw i8, ptr %19, i64 8
  %20 = load i32, ptr %type.i.i, align 8
  tail call void %17(ptr noundef %18, i32 noundef %20) #17
  br label %if.end

if.else.i.i:                                      ; preds = %if.end.i11
  tail call void @qemu_notify_event() #17
  br label %if.end

if.end:                                           ; preds = %if.else.i.i, %if.then.i.i, %timer_mod_ns_locked.exit
  ret void
}